(lp0
S'http://wmjdhr:69fb0ckt@42.51.206.209:16816'
p1
aS'http://wmjdhr:69fb0ckt@101.203.173.104:16816'
p2
aS'http://wmjdhr:69fb0ckt@123.206.200.178:16816'
p3
aS'http://wmjdhr:69fb0ckt@118.89.48.44:16816'
p4
aS'http://wmjdhr:69fb0ckt@101.200.185.203:16816'
p5
aS'http://wmjdhr:69fb0ckt@115.159.108.142:16816'
p6
aS'http://wmjdhr:69fb0ckt@139.199.73.152:16816'
p7
aS'http://wmjdhr:69fb0ckt@112.74.108.33:16816'
p8
aS'http://wmjdhr:69fb0ckt@211.149.159.44:16816'
p9
aS''
p10
aS''
p11
a.